; Function Attrs: null_pointer_is_valid sspstrong uwtable
define internal fastcc void @decode_GIAS_Request_get_status(ptr noundef %0, ptr noundef %1, ptr noundef %2, ptr noundef %3, ptr noundef %4, ptr noundef readonly captures(none) %5, i1 noundef zeroext %6) unnamed_addr #0 {
  %8 = getelementptr inbounds nuw i8, ptr %5, i64 7
  %9 = load i8, ptr %8, align 1
  switch i8 %9, label %31 [
    i8 0, label %34
    i8 1, label %10
  ]

10:                                               ; preds = %7
  %11 = getelementptr inbounds nuw i8, ptr %5, i64 16
  %12 = load i32, ptr %11, align 8
  switch i32 %12, label %29 [
    i32 0, label %13
    i32 1, label %34
  ]

13:                                               ; preds = %10
  %14 = load i32, ptr %4, align 4
  %15 = load i32, ptr @ett_giop_struct, align 4
  %16 = tail call ptr @proto_tree_add_subtree(ptr noundef %2, ptr noundef %0, i32 noundef %14, i32 noundef -1, i32 noundef %15, ptr noundef null, ptr noundef nonnull @.str.852)
  %17 = tail call i32 @get_CDR_enum(ptr noundef %0, ptr noundef %4, i1 noundef zeroext %6, i32 noundef 12)
  %18 = load i32, ptr @hf_UCO_Status_completion_state, align 4
  %19 = load i32, ptr %4, align 4
  %20 = add i32 %19, -4
  %21 = tail call ptr @proto_tree_add_uint(ptr noundef %16, i32 noundef %18, ptr noundef %0, i32 noundef %20, i32 noundef 4, i32 noundef %17)
  %22 = load i32, ptr @hf_UCO_Status_warning, align 4
  %23 = load i32, ptr %4, align 4
  %24 = add i32 %23, -1
  %25 = tail call zeroext i1 @get_CDR_boolean(ptr noundef %0, ptr noundef %4)
  %26 = zext i1 %25 to i64
  %27 = tail call ptr @proto_tree_add_boolean(ptr noundef %16, i32 noundef %22, ptr noundef %0, i32 noundef %24, i32 noundef 1, i64 noundef %26)
  %28 = load i32, ptr @hf_UCO_Status_status_message, align 4
  tail call void @giop_add_CDR_string(ptr noundef %16, ptr noundef %0, ptr noundef %4, i1 noundef zeroext %6, i32 noundef 12, i32 noundef %28)
  br label %34

29:                                               ; preds = %10
  %30 = tail call ptr (ptr, ptr, ptr, ptr, ...) @expert_add_info_format(ptr noundef %1, ptr noundef %3, ptr noundef nonnull @ei_gias_unknown_exception, ptr noundef nonnull @.str.826, i32 noundef %12)
  br label %34

31:                                               ; preds = %7
  %32 = zext i8 %9 to i32
  %33 = tail call ptr (ptr, ptr, ptr, ptr, ...) @expert_add_info_format(ptr noundef %1, ptr noundef %3, ptr noundef nonnull @ei_gias_unknown_giop_msg, ptr noundef nonnull @.str.827, i32 noundef %32)
  br label %34

34:                                               ; preds = %10, %13, %29, %31, %7
  ret void
}